target datalayout = "e-m:e-p270:32:32-p271:32:32-p272:64:64-i64:64-i128:128-f80:128-n8:16:32:64-S128"
target triple = "x86_64-pc-linux-gnu"

%struct.nstime_t = type { i64, i32 }

@ett_fmp_timeval = internal global i32 0, align 4

; Function Attrs: null_pointer_is_valid sspstrong uwtable
define internal i32 @dissect_fmp_timeval(ptr noundef %0, i32 noundef %1, ptr noundef %2, ptr noundef %3, i32 noundef %4, i32 noundef %5, i32 noundef %6) #0 {
  %8 = alloca ptr, align 8
  %9 = alloca i32, align 4
  %10 = alloca ptr, align 8
  %11 = alloca ptr, align 8
  %12 = alloca i32, align 4
  %13 = alloca i32, align 4
  %14 = alloca i32, align 4
  %15 = alloca %struct.nstime_t, align 8
  %16 = alloca ptr, align 8
  %17 = alloca ptr, align 8
  store ptr %0, ptr %8, align 8
  store i32 %1, ptr %9, align 4
  store ptr %2, ptr %10, align 8
  store ptr %3, ptr %11, align 8
  store i32 %4, ptr %12, align 4
  store i32 %5, ptr %13, align 4
  store i32 %6, ptr %14, align 4
  %18 = load ptr, ptr %11, align 8
  %19 = icmp ne ptr %18, null
  br i1 %19, label %20, label %56

20:                                               ; preds = %7
  call void @llvm.lifetime.start.p0(i64 16, ptr %15) #4
  call void @llvm.lifetime.start.p0(i64 8, ptr %16) #4
  call void @llvm.lifetime.start.p0(i64 8, ptr %17) #4
  %21 = load ptr, ptr %8, align 8
  %22 = load i32, ptr %9, align 4
  %23 = add i32 %22, 0
  %24 = call i32 @tvb_get_ntohl(ptr noundef %21, i32 noundef %23)
  %25 = zext i32 %24 to i64
  %26 = getelementptr inbounds nuw %struct.nstime_t, ptr %15, i32 0, i32 0
  store i64 %25, ptr %26, align 8
  %27 = load ptr, ptr %8, align 8
  %28 = load i32, ptr %9, align 4
  %29 = add i32 %28, 4
  %30 = call i32 @tvb_get_ntohl(ptr noundef %27, i32 noundef %29)
  %31 = getelementptr inbounds nuw %struct.nstime_t, ptr %15, i32 0, i32 1
  store i32 %30, ptr %31, align 8
  %32 = load ptr, ptr %11, align 8
  %33 = load i32, ptr %12, align 4
  %34 = load ptr, ptr %8, align 8
  %35 = load i32, ptr %9, align 4
  %36 = call ptr @proto_tree_add_time(ptr noundef %32, i32 noundef %33, ptr noundef %34, i32 noundef %35, i32 noundef 8, ptr noundef %15)
  store ptr %36, ptr %16, align 8
  %37 = load ptr, ptr %16, align 8
  %38 = load i32, ptr @ett_fmp_timeval, align 4
  %39 = call ptr @proto_item_add_subtree(ptr noundef %37, i32 noundef %38)
  store ptr %39, ptr %17, align 8
  %40 = load ptr, ptr %17, align 8
  %41 = load i32, ptr %13, align 4
  %42 = load ptr, ptr %8, align 8
  %43 = load i32, ptr %9, align 4
  %44 = getelementptr inbounds nuw %struct.nstime_t, ptr %15, i32 0, i32 0
  %45 = load i64, ptr %44, align 8
  %46 = trunc i64 %45 to i32
  %47 = call ptr @proto_tree_add_uint(ptr noundef %40, i32 noundef %41, ptr noundef %42, i32 noundef %43, i32 noundef 4, i32 noundef %46)
  %48 = load ptr, ptr %17, align 8
  %49 = load i32, ptr %14, align 4
  %50 = load ptr, ptr %8, align 8
  %51 = load i32, ptr %9, align 4
  %52 = add i32 %51, 4
  %53 = getelementptr inbounds nuw %struct.nstime_t, ptr %15, i32 0, i32 1
  %54 = load i32, ptr %53, align 8
  %55 = call ptr @proto_tree_add_uint(ptr noundef %48, i32 noundef %49, ptr noundef %50, i32 noundef %52, i32 noundef 4, i32 noundef %54)
  call void @llvm.lifetime.end.p0(i64 8, ptr %17) #4
  call void @llvm.lifetime.end.p0(i64 8, ptr %16) #4
  call void @llvm.lifetime.end.p0(i64 16, ptr %15) #4
  br label %56

56:                                               ; preds = %20, %7
  %57 = load i32, ptr %9, align 4
  %58 = add i32 %57, 8
  store i32 %58, ptr %9, align 4
  %59 = load i32, ptr %9, align 4
  ret i32 %59
}