; Function Attrs: null_pointer_is_valid sspstrong uwtable
define internal fastcc noundef i32 @dissect_fmp_timeval(ptr noundef %0, i32 noundef %1, ptr noundef %2, i32 noundef %3, i32 noundef %4, i32 noundef %5) unnamed_addr #0 {
  %7 = alloca %struct.nstime_t, align 8
  %.not = icmp eq ptr %2, null
  br i1 %.not, label %22, label %8

8:                                                ; preds = %6
  call void @llvm.lifetime.start.p0(i64 16, ptr nonnull %7) #3
  %9 = tail call i32 @tvb_get_ntohl(ptr noundef %0, i32 noundef %1)
  %10 = zext i32 %9 to i64
  store i64 %10, ptr %7, align 8
  %11 = add i32 %1, 4
  %12 = tail call i32 @tvb_get_ntohl(ptr noundef %0, i32 noundef %11)
  %13 = getelementptr inbounds nuw i8, ptr %7, i64 8
  store i32 %12, ptr %13, align 8
  %14 = call ptr @proto_tree_add_time(ptr noundef nonnull %2, i32 noundef %3, ptr noundef %0, i32 noundef %1, i32 noundef 8, ptr noundef nonnull %7)
  %15 = load i32, ptr @ett_fmp_timeval, align 4
  %16 = call ptr @proto_item_add_subtree(ptr noundef %14, i32 noundef %15)
  %17 = load i64, ptr %7, align 8
  %18 = trunc i64 %17 to i32
  %19 = call ptr @proto_tree_add_uint(ptr noundef %16, i32 noundef %4, ptr noundef %0, i32 noundef %1, i32 noundef 4, i32 noundef %18)
  %20 = load i32, ptr %13, align 8
  %21 = call ptr @proto_tree_add_uint(ptr noundef %16, i32 noundef %5, ptr noundef %0, i32 noundef %11, i32 noundef 4, i32 noundef %20)
  call void @llvm.lifetime.end.p0(i64 16, ptr nonnull %7) #3
  br label %22

22:                                               ; preds = %8, %6
  %23 = add i32 %1, 8
  ret i32 %23
}